; Function Attrs: mustprogress nofree norecurse nosync nounwind willreturn memory(argmem: readwrite) uwtable
define internal range(i32 -1, 60) i32 @attlist9(ptr noundef captures(none) %0, i32 noundef %1, ptr readnone captures(none) %2, ptr readnone captures(none) %3, ptr readnone captures(none) %4) #2 {
  switch i32 %1, label %6 [
    i32 15, label %common.exit
    i32 27, label %common.exit.sink.split
  ]

6:                                                ; preds = %5
  %7 = getelementptr inbounds nuw i8, ptr %0, i64 20
  %8 = load i32, ptr %7, align 4, !tbaa !9
  %9 = icmp eq i32 %8, 0
  %10 = icmp eq i32 %1, 28
  %or.cond.i = and i1 %10, %9
  br i1 %or.cond.i, label %common.exit, label %common.exit.sink.split

common.exit.sink.split:                           ; preds = %6, %5
  %error.sink = phi ptr [ @attlist1, %5 ], [ @error, %6 ]
  %.0.ph = phi i32 [ 38, %5 ], [ -1, %6 ]
  store ptr %error.sink, ptr %0, align 8, !tbaa !3
  br label %common.exit

common.exit:                                      ; preds = %common.exit.sink.split, %6, %5
  %.0 = phi i32 [ 33, %5 ], [ 59, %6 ], [ %.0.ph, %common.exit.sink.split ]
  ret i32 %.0
}